(dp0
VpendingRemovesSet
p1
c__builtin__
set
p2
((lp3
tp4
Rp5
sVpendingInstallsSet
p6
g2
((lp7
tp8
Rp9
sVdisabledAddons
p10
g2
((lp11
tp12
Rp13
sVpendingEnableSet
p14
g2
((lp15
tp16
Rp17
sVpendingDisableSet
p18
g2
((lp19
tp20
Rp21
sVoverrideCompatibility
p22
g2
((lp23
Vzportapapeles
p24
aVdectalk5.3run95
p25
aVttannouncer
p26
aVspeechhistoryexplorer
p27
aVru_tts
p28
aVlion
p29
aVrhvoice
p30
aVwebcamhelper
p31
aVsvox-pico
p32
aVnovelty espeak synths
p33
aVeloquence
p34
aVtranslate
p35
aVsoftvoice
p36
aVocr
p37
atp38
Rp39
sVblocked
p40
g2
((lp41
Vspellcheck
p42
atp43
Rp44
sVPENDING_OVERRIDE_COMPATIBILITY
p45
g2
((lp46
tp47
Rp48
sVbackCompatToAPIVersion
p49
(I2024
I1
I0
tp50
s.