(dp0
VpendingRemovesSet
p1
c__builtin__
set
p2
((lp3
tp4
Rp5
sVpendingInstallsSet
p6
g2
((lp7
tp8
Rp9
sVdisabledAddons
p10
g2
((lp11
tp12
Rp13
sVpendingEnableSet
p14
g2
((lp15
tp16
Rp17
sVpendingDisableSet
p18
g2
((lp19
tp20
Rp21
sVoverrideCompatibility
p22
g2
((lp23
Vttannouncer
p24
aVru_tts
p25
aVsoftvoice
p26
aVlion
p27
aVeloquence
p28
aVtranslate
p29
aVnovelty espeak synths
p30
aVspeechhistoryexplorer
p31
aVrhvoice
p32
aVocr
p33
aVsvox-pico
p34
aVdectalk5.3run95
p35
aVzportapapeles
p36
aVwebcamhelper
p37
atp38
Rp39
sVblocked
p40
g2
((lp41
Vspellcheck
p42
atp43
Rp44
sVPENDING_OVERRIDE_COMPATIBILITY
p45
g2
((lp46
tp47
Rp48
sVbackCompatToAPIVersion
p49
(I2024
I1
I0
tp50
s.