(dp0
VpendingRemovesSet
p1
c__builtin__
set
p2
((lp3
tp4
Rp5
sVpendingInstallsSet
p6
g2
((lp7
tp8
Rp9
sVdisabledAddons
p10
g2
((lp11
tp12
Rp13
sVpendingEnableSet
p14
g2
((lp15
tp16
Rp17
sVpendingDisableSet
p18
g2
((lp19
tp20
Rp21
sVoverrideCompatibility
p22
g2
((lp23
Vnovelty espeak synths
p24
aVphoneticpunctuation
p25
aVlion
p26
aVsibiac
p27
aVspeechhistoryexplorer
p28
aVtyping_settings
p29
aVsoftvoice
p30
aVsibiac_ocr
p31
aVzportapapeles
p32
aVttannouncer
p33
aVenhancedphoneticreading
p34
aVsvox-pico
p35
aVspellcheck
p36
aVocr
p37
aVtranslate
p38
aVbeepkeyboard
p39
aVrhvoice
p40
aVdectalk5.3run95
p41
aVru_tts
p42
aVwebcamhelper
p43
aVbrowsernav
p44
atp45
Rp46
sVblocked
p47
g2
((lp48
Veloquence
p49
atp50
Rp51
sVPENDING_OVERRIDE_COMPATIBILITY
p52
g2
((lp53
tp54
Rp55
sVbackCompatToAPIVersion
p56
(I2024
I1
I0
tp57
s.