(dp0
VpendingRemovesSet
p1
c__builtin__
set
p2
((lp3
tp4
Rp5
sVpendingInstallsSet
p6
g2
((lp7
tp8
Rp9
sVdisabledAddons
p10
g2
((lp11
tp12
Rp13
sVpendingEnableSet
p14
g2
((lp15
tp16
Rp17
sVpendingDisableSet
p18
g2
((lp19
tp20
Rp21
sVoverrideCompatibility
p22
g2
((lp23
Vspellcheck
p24
aVspeechhistoryexplorer
p25
aVsibiac
p26
aVzportapapeles
p27
aVtyping_settings
p28
aVnovelty espeak synths
p29
aVocr
p30
aVtranslate
p31
aVlion
p32
aVttannouncer
p33
aVsvox-pico
p34
aVrhvoice
p35
aVwebcamhelper
p36
aVsibiac_ocr
p37
aVdectalk5.3run95
p38
aVru_tts
p39
aVsoftvoice
p40
atp41
Rp42
sVblocked
p43
g2
((lp44
Veloquence
p45
atp46
Rp47
sVPENDING_OVERRIDE_COMPATIBILITY
p48
g2
((lp49
tp50
Rp51
sVbackCompatToAPIVersion
p52
(I2024
I1
I0
tp53
s.