(dp0
VpendingRemovesSet
p1
c__builtin__
set
p2
((lp3
tp4
Rp5
sVpendingInstallsSet
p6
g2
((lp7
tp8
Rp9
sVdisabledAddons
p10
g2
((lp11
tp12
Rp13
sVpendingEnableSet
p14
g2
((lp15
tp16
Rp17
sVpendingDisableSet
p18
g2
((lp19
tp20
Rp21
sVoverrideCompatibility
p22
g2
((lp23
Vdectalk5.3run95
p24
aVtranslate
p25
aVsibiac_ocr
p26
aVrhvoice
p27
aVocr
p28
aVspeechhistoryexplorer
p29
aVwebcamhelper
p30
aVspellcheck
p31
aVttannouncer
p32
aVnovelty espeak synths
p33
aVlion
p34
aVsvox-pico
p35
aVru_tts
p36
aVsibiac
p37
aVzportapapeles
p38
aVsoftvoice
p39
atp40
Rp41
sVblocked
p42
g2
((lp43
Veloquence
p44
atp45
Rp46
sVPENDING_OVERRIDE_COMPATIBILITY
p47
g2
((lp48
tp49
Rp50
sVbackCompatToAPIVersion
p51
(I2024
I1
I0
tp52
s.