(dp0
VpendingRemovesSet
p1
c__builtin__
set
p2
((lp3
tp4
Rp5
sVpendingInstallsSet
p6
g2
((lp7
tp8
Rp9
sVdisabledAddons
p10
g2
((lp11
tp12
Rp13
sVpendingEnableSet
p14
g2
((lp15
tp16
Rp17
sVpendingDisableSet
p18
g2
((lp19
tp20
Rp21
sVoverrideCompatibility
p22
g2
((lp23
Vttannouncer
p24
aVsvox-pico
p25
aVbrowsernav
p26
aVspellcheck
p27
aVru_tts
p28
aVzportapapeles
p29
aVlion
p30
aVbeepkeyboard
p31
aVsibiac_ocr
p32
aVtyping_settings
p33
aVwebcamhelper
p34
aVrhvoice
p35
aVspeechhistoryexplorer
p36
aVnovelty espeak synths
p37
aVenhancedphoneticreading
p38
aVtranslate
p39
aVocr
p40
aVphoneticpunctuation
p41
aVsibiac
p42
aVdectalk5.3run95
p43
aVsoftvoice
p44
atp45
Rp46
sVblocked
p47
g2
((lp48
Veloquence
p49
atp50
Rp51
sVPENDING_OVERRIDE_COMPATIBILITY
p52
g2
((lp53
tp54
Rp55
sVbackCompatToAPIVersion
p56
(I2024
I1
I0
tp57
s.