(dp0
VlastCheck
p1
F1738332025.1946523
sVdontRemindVersion
p2
V2024.4.2
p3
sVpendingUpdateFile
p4
NsVpendingUpdateVersion
p5
NsVpendingUpdateAPIVersion
p6
(I0
I0
I0
tp7
sVpendingUpdateBackCompatToAPIVersion
p8
g7
sVid
p9
V1af701cb3ae744cb8894f904971c13bc
p10
s.